target datalayout = "e-m:e-p270:32:32-p271:32:32-p272:64:64-i64:64-i128:128-f80:128-n8:16:32:64-S128"
target triple = "x86_64-pc-linux-gnu"

%"class.std::basic_string_view" = type { i64, ptr }
%"class.grpc_core::BdpEstimator" = type { i64, i64, %struct.gpr_timespec, %"class.grpc_core::Duration", i32, i32, double, %"class.std::basic_string_view" }
%struct.gpr_timespec = type { i64, i32, i32 }
%"class.grpc_core::Duration" = type { i64 }

; Function Attrs: mustprogress nounwind uwtable
define linkonce_odr void @_ZN9grpc_core8DurationC2El(ptr noundef nonnull align 8 dereferenceable(8) %0, i64 noundef %1) unnamed_addr #8 comdat align 2 {
  %3 = alloca ptr, align 8
  %4 = alloca i64, align 8
  store ptr %0, ptr %3, align 8, !tbaa !45
  store i64 %1, ptr %4, align 8, !tbaa !24
  %5 = load ptr, ptr %3, align 8
  %6 = getelementptr inbounds nuw %"class.grpc_core::Duration", ptr %5, i32 0, i32 0
  %7 = load i64, ptr %4, align 8, !tbaa !24
  store i64 %7, ptr %6, align 8, !tbaa !47
  ret void
}

; Function Attrs: mustprogress uwtable
define linkonce_odr i64 @_ZN9grpc_core8Duration12MillisecondsEl(i64 noundef %0) #4 comdat align 2 {
  %2 = alloca %"class.grpc_core::Duration", align 8
  %3 = alloca i64, align 8
  store i64 %0, ptr %3, align 8, !tbaa !24
  %4 = load i64, ptr %3, align 8, !tbaa !24
  call void @_ZN9grpc_core8DurationC2El(ptr noundef nonnull align 8 dereferenceable(8) %2, i64 noundef %4)
  %5 = getelementptr inbounds nuw %"class.grpc_core::Duration", ptr %2, i32 0, i32 0
  %6 = load i64, ptr %5, align 8
  ret i64 %6
}

; Function Attrs: mustprogress uwtable
define void @_ZN9grpc_core12BdpEstimatorC2ESt17basic_string_viewIcSt11char_traitsIcEE(ptr noundef nonnull align 8 dereferenceable(72) %0, i64 %1, ptr %2) unnamed_addr #4 align 2 {
  %4 = alloca %"class.std::basic_string_view", align 8
  %5 = alloca ptr, align 8
  %6 = getelementptr inbounds nuw { i64, ptr }, ptr %4, i32 0, i32 0
  store i64 %1, ptr %6, align 8
  %7 = getelementptr inbounds nuw { i64, ptr }, ptr %4, i32 0, i32 1
  store ptr %2, ptr %7, align 8
  store ptr %0, ptr %5, align 8, !tbaa !3
  %8 = load ptr, ptr %5, align 8
  %9 = getelementptr inbounds nuw %"class.grpc_core::BdpEstimator", ptr %8, i32 0, i32 0
  store i64 0, ptr %9, align 8, !tbaa !8
  %10 = getelementptr inbounds nuw %"class.grpc_core::BdpEstimator", ptr %8, i32 0, i32 1
  store i64 65536, ptr %10, align 8, !tbaa !19
  %11 = getelementptr inbounds nuw %"class.grpc_core::BdpEstimator", ptr %8, i32 0, i32 2
  %12 = call { i64, i64 } @gpr_time_0(i32 noundef 0)
  %13 = getelementptr inbounds nuw { i64, i64 }, ptr %11, i32 0, i32 0
  %14 = extractvalue { i64, i64 } %12, 0
  store i64 %14, ptr %13, align 8
  %15 = getelementptr inbounds nuw { i64, i64 }, ptr %11, i32 0, i32 1
  %16 = extractvalue { i64, i64 } %12, 1
  store i64 %16, ptr %15, align 8
  %17 = getelementptr inbounds nuw %"class.grpc_core::BdpEstimator", ptr %8, i32 0, i32 3
  %18 = call i64 @_ZN9grpc_core8Duration12MillisecondsEl(i64 noundef 100)
  %19 = getelementptr inbounds nuw %"class.grpc_core::Duration", ptr %17, i32 0, i32 0
  store i64 %18, ptr %19, align 8
  %20 = getelementptr inbounds nuw %"class.grpc_core::BdpEstimator", ptr %8, i32 0, i32 4
  store i32 0, ptr %20, align 8, !tbaa !20
  %21 = getelementptr inbounds nuw %"class.grpc_core::BdpEstimator", ptr %8, i32 0, i32 5
  store i32 0, ptr %21, align 4, !tbaa !21
  %22 = getelementptr inbounds nuw %"class.grpc_core::BdpEstimator", ptr %8, i32 0, i32 6
  store double 0.000000e+00, ptr %22, align 8, !tbaa !22
  %23 = getelementptr inbounds nuw %"class.grpc_core::BdpEstimator", ptr %8, i32 0, i32 7
  call void @llvm.memcpy.p0.p0.i64(ptr align 8 %23, ptr align 8 %4, i64 16, i1 false), !tbaa.struct !23
  ret void
}