; Function Attrs: mustprogress uwtable
define void @_ZN9grpc_core12BdpEstimatorC2ESt17basic_string_viewIcSt11char_traitsIcEE(ptr noundef nonnull writeonly align 8 captures(none) dereferenceable(72) initializes((0, 72)) %0, i64 %1, ptr %2) unnamed_addr #3 align 2 {
  store i64 0, ptr %0, align 8, !tbaa !3
  %4 = getelementptr inbounds nuw i8, ptr %0, i64 8
  store i64 65536, ptr %4, align 8, !tbaa !17
  %5 = getelementptr inbounds nuw i8, ptr %0, i64 16
  %6 = tail call { i64, i64 } @gpr_time_0(i32 noundef 0)
  %7 = extractvalue { i64, i64 } %6, 0
  store i64 %7, ptr %5, align 8
  %8 = getelementptr inbounds nuw i8, ptr %0, i64 24
  %9 = extractvalue { i64, i64 } %6, 1
  store i64 %9, ptr %8, align 8
  %10 = getelementptr inbounds nuw i8, ptr %0, i64 32
  store i64 100, ptr %10, align 8
  %11 = getelementptr inbounds nuw i8, ptr %0, i64 40
  %12 = getelementptr inbounds nuw i8, ptr %0, i64 56
  tail call void @llvm.memset.p0.i64(ptr noundef nonnull align 8 dereferenceable(16) %11, i8 0, i64 16, i1 false)
  store i64 %1, ptr %12, align 8, !tbaa !18
  %.sroa.2.0..sroa_idx = getelementptr inbounds nuw i8, ptr %0, i64 64
  store ptr %2, ptr %.sroa.2.0..sroa_idx, align 8, !tbaa !19
  ret void
}